	.text
	.file	"test.cu.hip.cc"
	.globl	main                            # -- Begin function main
	.p2align	4, 0x90
	.type	main,@function
main:                                   # @main
	.cfi_startproc
# %bb.0:                                # %entry
	pushq	%r14
	.cfi_def_cfa_offset 16
	pushq	%rbx
	.cfi_def_cfa_offset 24
	subq	$104, %rsp
	.cfi_def_cfa_offset 128
	.cfi_offset %rbx, -24
	.cfi_offset %r14, -16
	leaq	8(%rsp), %rdi
	movl	$1024, %esi                     # imm = 0x400
	callq	hipMalloc
	movq	%rsp, %rdi
	movl	$1024, %esi                     # imm = 0x400
	callq	hipMalloc
	movl	$1024, %edi                     # imm = 0x400
	callq	malloc
	movq	%rax, %r14
	movl	$1024, %edi                     # imm = 0x400
	callq	malloc
	movq	%rax, %rbx
	movabsq	$4294967297, %rdi               # imm = 0x100000001
	leaq	255(%rdi), %rdx
	movl	$1, %esi
	movl	$1, %ecx
	xorl	%r8d, %r8d
	xorl	%r9d, %r9d
	callq	__hipPushCallConfiguration
	testl	%eax, %eax
	jne	.LBB0_2
# %bb.1:                                # %kcall.configok
	movq	8(%rsp), %rax
	movq	(%rsp), %rcx
	movq	%rax, 72(%rsp)
	movq	%rcx, 64(%rsp)
	leaq	72(%rsp), %rax
	movq	%rax, 80(%rsp)
	leaq	64(%rsp), %rax
	movq	%rax, 88(%rsp)
	leaq	48(%rsp), %rdi
	leaq	32(%rsp), %rsi
	leaq	24(%rsp), %rdx
	leaq	16(%rsp), %rcx
	callq	__hipPopCallConfiguration
	movq	48(%rsp), %rsi
	movl	56(%rsp), %edx
	movq	32(%rsp), %rcx
	movl	40(%rsp), %r8d
	leaq	80(%rsp), %r9
	movl	$_Z11test_kernelILi256ELi4096EEvPfS0_, %edi
	pushq	16(%rsp)
	.cfi_adjust_cfa_offset 8
	pushq	32(%rsp)
	.cfi_adjust_cfa_offset 8
	callq	hipLaunchKernel
	addq	$16, %rsp
	.cfi_adjust_cfa_offset -16
.LBB0_2:                                # %kcall.end
	movq	8(%rsp), %rsi
	movl	$1024, %edx                     # imm = 0x400
	movq	%r14, %rdi
	movl	$2, %ecx
	callq	hipMemcpy
	movq	(%rsp), %rsi
	movl	$1024, %edx                     # imm = 0x400
	movq	%rbx, %rdi
	movl	$2, %ecx
	callq	hipMemcpy
	movq	8(%rsp), %rdi
	callq	hipFree
	movq	%r14, %rdi
	callq	free
	movq	(%rsp), %rdi
	callq	hipFree
	movq	%rbx, %rdi
	callq	free
	xorl	%eax, %eax
	addq	$104, %rsp
	.cfi_def_cfa_offset 24
	popq	%rbx
	.cfi_def_cfa_offset 16
	popq	%r14
	.cfi_def_cfa_offset 8
	retq
.Lfunc_end0:
	.size	main, .Lfunc_end0-main
	.cfi_endproc
                                        # -- End function
	.section	.text._Z26__device_stub__test_kernelILi256ELi4096EEvPfS0_,"axG",@progbits,_Z26__device_stub__test_kernelILi256ELi4096EEvPfS0_,comdat
	.weak	_Z26__device_stub__test_kernelILi256ELi4096EEvPfS0_ # -- Begin function _Z26__device_stub__test_kernelILi256ELi4096EEvPfS0_
	.p2align	4, 0x90
	.type	_Z26__device_stub__test_kernelILi256ELi4096EEvPfS0_,@function
_Z26__device_stub__test_kernelILi256ELi4096EEvPfS0_: # @_Z26__device_stub__test_kernelILi256ELi4096EEvPfS0_
	.cfi_startproc
# %bb.0:                                # %entry
	subq	$88, %rsp
	.cfi_def_cfa_offset 96
	movq	%rdi, 56(%rsp)
	movq	%rsi, 48(%rsp)
	leaq	56(%rsp), %rax
	movq	%rax, 64(%rsp)
	leaq	48(%rsp), %rax
	movq	%rax, 72(%rsp)
	leaq	32(%rsp), %rdi
	leaq	16(%rsp), %rsi
	leaq	8(%rsp), %rdx
	movq	%rsp, %rcx
	callq	__hipPopCallConfiguration
	movq	32(%rsp), %rsi
	movl	40(%rsp), %edx
	movq	16(%rsp), %rcx
	movl	24(%rsp), %r8d
	leaq	64(%rsp), %r9
	movl	$_Z11test_kernelILi256ELi4096EEvPfS0_, %edi
	pushq	(%rsp)
	.cfi_adjust_cfa_offset 8
	pushq	16(%rsp)
	.cfi_adjust_cfa_offset 8
	callq	hipLaunchKernel
	addq	$104, %rsp
	.cfi_adjust_cfa_offset -104
	retq
.Lfunc_end1:
	.size	_Z26__device_stub__test_kernelILi256ELi4096EEvPfS0_, .Lfunc_end1-_Z26__device_stub__test_kernelILi256ELi4096EEvPfS0_
	.cfi_endproc
                                        # -- End function
	.section	.text.startup,"ax",@progbits
	.p2align	4, 0x90                         # -- Begin function _GLOBAL__sub_I_test.cu.hip.cc
	.type	_GLOBAL__sub_I_test.cu.hip.cc,@function
_GLOBAL__sub_I_test.cu.hip.cc:          # @_GLOBAL__sub_I_test.cu.hip.cc
	.cfi_startproc
# %bb.0:                                # %entry
	pushq	%rax
	.cfi_def_cfa_offset 16
	movl	$_ZStL8__ioinit, %edi
	callq	_ZNSt8ios_base4InitC1Ev
	movl	$_ZNSt8ios_base4InitD1Ev, %edi
	movl	$_ZStL8__ioinit, %esi
	movl	$__dso_handle, %edx
	popq	%rax
	.cfi_def_cfa_offset 8
	jmp	__cxa_atexit                    # TAILCALL
.Lfunc_end2:
	.size	_GLOBAL__sub_I_test.cu.hip.cc, .Lfunc_end2-_GLOBAL__sub_I_test.cu.hip.cc
	.cfi_endproc
                                        # -- End function
	.text
	.p2align	4, 0x90                         # -- Begin function __hip_module_ctor
	.type	__hip_module_ctor,@function
__hip_module_ctor:                      # @__hip_module_ctor
	.cfi_startproc
# %bb.0:                                # %entry
	subq	$40, %rsp
	.cfi_def_cfa_offset 48
	movq	__hip_gpubin_handle(%rip), %rdi
	testq	%rdi, %rdi
	jne	.LBB3_2
# %bb.1:                                # %if
	movl	$__hip_fatbin_wrapper, %edi
	callq	__hipRegisterFatBinary
	movq	%rax, %rdi
	movq	%rax, __hip_gpubin_handle(%rip)
.LBB3_2:                                # %exit
	xorps	%xmm0, %xmm0
	movups	%xmm0, 16(%rsp)
	movups	%xmm0, (%rsp)
	movl	$_Z11test_kernelILi256ELi4096EEvPfS0_, %esi
	movl	$.L__unnamed_1, %edx
	movl	$.L__unnamed_1, %ecx
	movl	$-1, %r8d
	xorl	%r9d, %r9d
	callq	__hipRegisterFunction
	movl	$__hip_module_dtor, %edi
	addq	$40, %rsp
	.cfi_def_cfa_offset 8
	jmp	atexit                          # TAILCALL
.Lfunc_end3:
	.size	__hip_module_ctor, .Lfunc_end3-__hip_module_ctor
	.cfi_endproc
                                        # -- End function
	.p2align	4, 0x90                         # -- Begin function __hip_module_dtor
	.type	__hip_module_dtor,@function
__hip_module_dtor:                      # @__hip_module_dtor
	.cfi_startproc
# %bb.0:                                # %entry
	movq	__hip_gpubin_handle(%rip), %rdi
	testq	%rdi, %rdi
	je	.LBB4_2
# %bb.1:                                # %if
	pushq	%rax
	.cfi_def_cfa_offset 16
	callq	__hipUnregisterFatBinary
	movq	$0, __hip_gpubin_handle(%rip)
	addq	$8, %rsp
	.cfi_def_cfa_offset 8
.LBB4_2:                                # %exit
	retq
.Lfunc_end4:
	.size	__hip_module_dtor, .Lfunc_end4-__hip_module_dtor
	.cfi_endproc
                                        # -- End function
	.type	_ZStL8__ioinit,@object          # @_ZStL8__ioinit
	.local	_ZStL8__ioinit
	.comm	_ZStL8__ioinit,1,1
	.hidden	__dso_handle
	.type	_Z11test_kernelILi256ELi4096EEvPfS0_,@object # @_Z11test_kernelILi256ELi4096EEvPfS0_
	.section	.rodata._Z11test_kernelILi256ELi4096EEvPfS0_,"aG",@progbits,_Z11test_kernelILi256ELi4096EEvPfS0_,comdat
	.weak	_Z11test_kernelILi256ELi4096EEvPfS0_
	.p2align	3, 0x0
_Z11test_kernelILi256ELi4096EEvPfS0_:
	.quad	_Z26__device_stub__test_kernelILi256ELi4096EEvPfS0_
	.size	_Z11test_kernelILi256ELi4096EEvPfS0_, 8

	.type	.L__unnamed_1,@object           # @0
	.section	.rodata.str1.1,"aMS",@progbits,1
.L__unnamed_1:
	.asciz	"_Z11test_kernelILi256ELi4096EEvPfS0_"
	.size	.L__unnamed_1, 37

	.type	.L__unnamed_2,@object           # @1
	.section	.hip_fatbin,"a",@progbits
	.p2align	12, 0x0
.L__unnamed_2:
	.asciz	"__CLANG_OFFLOAD_BUNDLE__\002\000\000\000\000\000\000\000\000\020\000\000\000\000\000\000\000\000\000\000\000\000\000\000\033\000\000\000\000\000\000\000host-x86_64-unknown-linux--\000\020\000\000\000\000\000\000\b\023\000\000\000\000\000\000\037\000\000\000\000\000\000\000hipv4-amdgcn-amd-amdhsa--gfx90a\000\000\000\000\000\000\000\000\000\000\000\000\000\000\000\000\000\000\000\000\000\000\000\000\000\000\000\000\000\000\000\000\000\000\000\000\000\000\000\000\000\000\000\000\000\000\000\000\000\000\000\000\000\000\000\000\000\000\000\000\000\000\000\000\000\000\000\000\000\000\000\000\000\000\000\000\000\000\000\000\000\000\000\000\000\000\000\000\000\000\000\000\000\000\000\000\000\000\000\000\000\000\000\000\000\000\000\000\000\000\000\000\000\000\000\000\000\000\000\000\000\000\000\000\000\000\000\000\000\000\000\000\000\000\000\000\000\000\000\000\000\000\000\000\000\000\000\000\000\000\000\000\000\000\000\000\000\000\000\000\000\000\000\000\000\000\000\000\000\000\000\000\000\000\000\000\000\000\000\000\000\000\000\000\000\000\000\000\000\000\000\000\000\000\000\000\000\000\000\000\000\000\000\000\000\000\000\000\000\000\000\000\000\000\000\000\000\000\000\000\000\000\000\000\000\000\000\000\000\000\000\000\000\000\000\000\000\000\000\000\000\000\000\000\000\000\000\000\000\000\000\000\000\000\000\000\000\000\000\000\000\000\000\000\000\000\000\000\000\000\000\000\000\000\000\000\000\000\000\000\000\000\000\000\000\000\000\000\000\000\000\000\000\000\000\000\000\000\000\000\000\000\000\000\000\000\000\000\000\000\000\000\000\000\000\000\000\000\000\000\000\000\000\000\000\000\000\000\000\000\000\000\000\000\000\000\000\000\000\000\000\000\000\000\000\000\000\000\000\000\000\000\000\000\000\000\000\000\000\000\000\000\000\000\000\000\000\000\000\000\000\000\000\000\000\000\000\000\000\000\000\000\000\000\000\000\000\000\000\000\000\000\000\000\000\000\000\000\000\000\000\000\000\000\000\000\000\000\000\000\000\000\000\000\000\000\000\000\000\000\000\000\000\000\000\000\000\000\000\000\000\000\000\000\000\000\000\000\000\000\000\000\000\000\000\000\000\000\000\000\000\000\000\000\000\000\000\000\000\000\000\000\000\000\000\000\000\000\000\000\000\000\000\000\000\000\000\000\000\000\000\000\000\000\000\000\000\000\000\000\000\000\000\000\000\000\000\000\000\000\000\000\000\000\000\000\000\000\000\000\000\000\000\000\000\000\000\000\000\000\000\000\000\000\000\000\000\000\000\000\000\000\000\000\000\000\000\000\000\000\000\000\000\000\000\000\000\000\000\000\000\000\000\000\000\000\000\000\000\000\000\000\000\000\000\000\000\000\000\000\000\000\000\000\000\000\000\000\000\000\000\000\000\000\000\000\000\000\000\000\000\000\000\000\000\000\000\000\000\000\000\000\000\000\000\000\000\000\000\000\000\000\000\000\000\000\000\000\000\000\000\000\000\000\000\000\000\000\000\000\000\000\000\000\000\000\000\000\000\000\000\000\000\000\000\000\000\000\000\000\000\000\000\000\000\000\000\000\000\000\000\000\000\000\000\000\000\000\000\000\000\000\000\000\000\000\000\000\000\000\000\000\000\000\000\000\000\000\000\000\000\000\000\000\000\000\000\000\000\000\000\000\000\000\000\000\000\000\000\000\000\000\000\000\000\000\000\000\000\000\000\000\000\000\000\000\000\000\000\000\000\000\000\000\000\000\000\000\000\000\000\000\000\000\000\000\000\000\000\000\000\000\000\000\000\000\000\000\000\000\000\000\000\000\000\000\000\000\000\000\000\000\000\000\000\000\000\000\000\000\000\000\000\000\000\000\000\000\000\000\000\000\000\000\000\000\000\000\000\000\000\000\000\000\000\000\000\000\000\000\000\000\000\000\000\000\000\000\000\000\000\000\000\000\000\000\000\000\000\000\000\000\000\000\000\000\000\000\000\000\000\000\000\000\000\000\000\000\000\000\000\000\000\000\000\000\000\000\000\000\000\000\000\000\000\000\000\000\000\000\000\000\000\000\000\000\000\000\000\000\000\000\000\000\000\000\000\000\000\000\000\000\000\000\000\000\000\000\000\000\000\000\000\000\000\000\000\000\000\000\000\000\000\000\000\000\000\000\000\000\000\000\000\000\000\000\000\000\000\000\000\000\000\000\000\000\000\000\000\000\000\000\000\000\000\000\000\000\000\000\000\000\000\000\000\000\000\000\000\000\000\000\000\000\000\000\000\000\000\000\000\000\000\000\000\000\000\000\000\000\000\000\000\000\000\000\000\000\000\000\000\000\000\000\000\000\000\000\000\000\000\000\000\000\000\000\000\000\000\000\000\000\000\000\000\000\000\000\000\000\000\000\000\000\000\000\000\000\000\000\000\000\000\000\000\000\000\000\000\000\000\000\000\000\000\000\000\000\000\000\000\000\000\000\000\000\000\000\000\000\000\000\000\000\000\000\000\000\000\000\000\000\000\000\000\000\000\000\000\000\000\000\000\000\000\000\000\000\000\000\000\000\000\000\000\000\000\000\000\000\000\000\000\000\000\000\000\000\000\000\000\000\000\000\000\000\000\000\000\000\000\000\000\000\000\000\000\000\000\000\000\000\000\000\000\000\000\000\000\000\000\000\000\000\000\000\000\000\000\000\000\000\000\000\000\000\000\000\000\000\000\000\000\000\000\000\000\000\000\000\000\000\000\000\000\000\000\000\000\000\000\000\000\000\000\000\000\000\000\000\000\000\000\000\000\000\000\000\000\000\000\000\000\000\000\000\000\000\000\000\000\000\000\000\000\000\000\000\000\000\000\000\000\000\000\000\000\000\000\000\000\000\000\000\000\000\000\000\000\000\000\000\000\000\000\000\000\000\000\000\000\000\000\000\000\000\000\000\000\000\000\000\000\000\000\000\000\000\000\000\000\000\000\000\000\000\000\000\000\000\000\000\000\000\000\000\000\000\000\000\000\000\000\000\000\000\000\000\000\000\000\000\000\000\000\000\000\000\000\000\000\000\000\000\000\000\000\000\000\000\000\000\000\000\000\000\000\000\000\000\000\000\000\000\000\000\000\000\000\000\000\000\000\000\000\000\000\000\000\000\000\000\000\000\000\000\000\000\000\000\000\000\000\000\000\000\000\000\000\000\000\000\000\000\000\000\000\000\000\000\000\000\000\000\000\000\000\000\000\000\000\000\000\000\000\000\000\000\000\000\000\000\000\000\000\000\000\000\000\000\000\000\000\000\000\000\000\000\000\000\000\000\000\000\000\000\000\000\000\000\000\000\000\000\000\000\000\000\000\000\000\000\000\000\000\000\000\000\000\000\000\000\000\000\000\000\000\000\000\000\000\000\000\000\000\000\000\000\000\000\000\000\000\000\000\000\000\000\000\000\000\000\000\000\000\000\000\000\000\000\000\000\000\000\000\000\000\000\000\000\000\000\000\000\000\000\000\000\000\000\000\000\000\000\000\000\000\000\000\000\000\000\000\000\000\000\000\000\000\000\000\000\000\000\000\000\000\000\000\000\000\000\000\000\000\000\000\000\000\000\000\000\000\000\000\000\000\000\000\000\000\000\000\000\000\000\000\000\000\000\000\000\000\000\000\000\000\000\000\000\000\000\000\000\000\000\000\000\000\000\000\000\000\000\000\000\000\000\000\000\000\000\000\000\000\000\000\000\000\000\000\000\000\000\000\000\000\000\000\000\000\000\000\000\000\000\000\000\000\000\000\000\000\000\000\000\000\000\000\000\000\000\000\000\000\000\000\000\000\000\000\000\000\000\000\000\000\000\000\000\000\000\000\000\000\000\000\000\000\000\000\000\000\000\000\000\000\000\000\000\000\000\000\000\000\000\000\000\000\000\000\000\000\000\000\000\000\000\000\000\000\000\000\000\000\000\000\000\000\000\000\000\000\000\000\000\000\000\000\000\000\000\000\000\000\000\000\000\000\000\000\000\000\000\000\000\000\000\000\000\000\000\000\000\000\000\000\000\000\000\000\000\000\000\000\000\000\000\000\000\000\000\000\000\000\000\000\000\000\000\000\000\000\000\000\000\000\000\000\000\000\000\000\000\000\000\000\000\000\000\000\000\000\000\000\000\000\000\000\000\000\000\000\000\000\000\000\000\000\000\000\000\000\000\000\000\000\000\000\000\000\000\000\000\000\000\000\000\000\000\000\000\000\000\000\000\000\000\000\000\000\000\000\000\000\000\000\000\000\000\000\000\000\000\000\000\000\000\000\000\000\000\000\000\000\000\000\000\000\000\000\000\000\000\000\000\000\000\000\000\000\000\000\000\000\000\000\000\000\000\000\000\000\000\000\000\000\000\000\000\000\000\000\000\000\000\000\000\000\000\000\000\000\000\000\000\000\000\000\000\000\000\000\000\000\000\000\000\000\000\000\000\000\000\000\000\000\000\000\000\000\000\000\000\000\000\000\000\000\000\000\000\000\000\000\000\000\000\000\000\000\000\000\000\000\000\000\000\000\000\000\000\000\000\000\000\000\000\000\000\000\000\000\000\000\000\000\000\000\000\000\000\000\000\000\000\000\000\000\000\000\000\000\000\000\000\000\000\000\000\000\000\000\000\000\000\000\000\000\000\000\000\000\000\000\000\000\000\000\000\000\000\000\000\000\000\000\000\000\000\000\000\000\000\000\000\000\000\000\000\000\000\000\000\000\000\000\000\000\000\000\000\000\000\000\000\000\000\000\000\000\000\000\000\000\000\000\000\000\000\000\000\000\000\000\000\000\000\000\000\000\000\000\000\000\000\000\000\000\000\000\000\000\000\000\000\000\000\000\000\000\000\000\000\000\000\000\000\000\000\000\000\000\000\000\000\000\000\000\000\000\000\000\000\000\000\000\000\000\000\000\000\000\000\000\000\000\000\000\000\000\000\000\000\000\000\000\000\000\000\000\000\000\000\000\000\000\000\000\000\000\000\000\000\000\000\000\000\000\000\000\000\000\000\000\000\000\000\000\000\000\000\000\000\000\000\000\000\000\000\000\000\000\000\000\000\000\000\000\000\000\000\000\000\000\000\000\000\000\000\000\000\000\000\000\000\000\000\000\000\000\000\000\000\000\000\000\000\000\000\000\000\000\000\000\000\000\000\000\000\000\000\000\000\000\000\000\000\000\000\000\000\000\000\000\000\000\000\000\000\000\000\000\000\000\000\000\000\000\000\000\000\000\000\000\000\000\000\000\000\000\000\000\000\000\000\000\000\000\000\000\000\000\000\000\000\000\000\000\000\000\000\000\000\000\000\000\000\000\000\000\000\000\000\000\000\000\000\000\000\000\000\000\000\000\000\000\000\000\000\000\000\000\000\000\000\000\000\000\000\000\000\000\000\000\000\000\000\000\000\000\000\000\000\000\000\000\000\000\000\000\000\000\000\000\000\000\000\000\000\000\000\000\000\000\000\000\000\000\000\000\000\000\000\000\000\000\000\000\000\000\000\000\000\000\000\000\000\000\000\000\000\000\000\000\000\000\000\000\000\000\000\000\000\000\000\000\000\000\000\000\000\000\000\000\000\000\000\000\000\000\000\000\000\000\000\000\000\000\000\000\000\000\000\000\000\000\000\000\000\000\000\000\000\000\000\000\000\000\000\000\000\000\000\000\000\000\000\000\000\000\000\000\000\000\000\000\000\000\000\000\000\000\000\000\000\000\000\000\000\000\000\000\000\000\000\000\000\000\000\000\000\000\000\000\000\000\000\000\000\000\000\000\000\000\000\000\000\000\000\000\000\000\000\000\000\000\000\000\000\000\000\000\000\000\000\000\000\000\000\000\000\000\000\000\000\000\000\000\000\000\000\000\000\000\000\000\000\000\000\000\000\000\000\000\000\000\000\000\000\000\000\000\000\000\000\000\000\000\000\000\000\000\000\000\000\000\000\000\000\000\000\000\000\000\000\000\000\000\000\000\000\000\000\000\000\000\000\000\000\000\000\000\000\000\000\000\000\000\000\000\000\000\000\000\000\000\000\000\000\000\000\000\000\000\000\000\000\000\000\000\000\000\000\000\000\000\000\000\000\000\000\000\000\000\000\000\000\000\000\000\000\000\000\000\000\000\000\000\000\000\000\000\000\000\000\000\000\000\000\000\000\000\000\000\000\000\000\000\000\000\000\000\000\000\000\000\000\000\000\000\000\000\000\000\000\000\000\000\000\000\000\000\000\000\000\000\000\000\000\000\000\000\000\000\000\000\000\000\000\000\000\000\000\000\000\000\000\000\000\000\000\000\000\000\000\000\000\000\000\000\000\000\000\000\000\000\000\000\000\000\000\000\000\000\000\000\000\000\000\000\000\000\000\000\000\000\000\000\000\000\000\000\000\000\000\000\000\000\000\000\000\000\000\000\000\000\000\000\000\000\000\000\000\000\000\000\000\000\000\000\000\000\000\000\000\000\000\000\000\000\000\000\000\000\000\000\000\000\000\000\000\000\000\000\000\000\000\000\000\000\000\000\000\000\000\000\000\000\000\000\000\000\000\000\000\000\000\000\000\000\000\000\000\000\000\000\000\000\000\000\000\000\000\000\000\000\000\000\000\000\000\000\000\000\000\000\000\000\000\000\000\000\000\000\000\000\000\000\000\000\000\000\000\000\000\000\000\000\000\000\000\000\000\000\000\000\000\000\000\000\000\000\000\000\000\000\000\000\000\000\000\000\000\000\000\000\000\000\000\000\000\000\000\000\000\000\000\000\000\000\000\000\000\000\000\000\000\000\000\000\000\000\000\000\000\000\000\000\000\000\000\000\000\000\000\000\000\000\000\000\000\000\000\000\000\000\000\000\000\000\000\000\000\000\000\000\000\000\000\000\000\000\000\000\000\000\000\000\000\000\000\000\000\000\000\000\000\000\000\000\000\000\000\000\000\000\000\000\000\000\000\000\000\000\000\000\000\000\000\000\000\000\000\000\000\000\000\000\000\000\000\000\000\000\000\000\000\000\000\000\000\000\000\000\000\000\000\000\000\000\000\000\000\000\000\000\000\000\000\000\000\000\000\000\000\000\000\000\000\000\000\000\000\000\000\000\000\000\000\000\000\000\000\000\000\000\000\000\000\000\000\000\000\000\000\000\000\000\000\000\000\000\000\000\000\000\000\000\000\000\000\000\000\000\000\000\000\000\000\000\000\000\000\000\000\000\000\000\000\000\000\000\000\000\000\000\000\000\000\000\000\000\000\000\000\000\000\000\000\000\000\000\000\000\000\000\000\000\000\000\000\000\000\000\000\000\000\000\000\000\000\000\000\000\000\000\000\000\000\000\000\000\000\000\000\000\000\000\000\000\000\000\000\000\000\000\000\000\000\000\000\000\000\000\000\000\000\000\000\000\000\000\000\000\000\000\000\000\000\000\000\000\000\000\000\000\000\000\000\000\000\000\000\000\000\000\000\000\000\000\000\000\000\000\000\000\000\000\000\000\000\000\000\000\000\000\000\000\000\000\000\000\000\000\000\000\000\000\000\000\000\000\000\000\000\000\000\000\000\000\000\000\000\000\000\000\000\000\000\000\000\000\000\000\000\000\000\000\000\000\000\000\000\000\000\000\000\000\000\000\000\000\000\000\000\000\000\000\000\000\000\000\000\000\000\000\000\000\000\000\000\000\000\000\000\000\000\000\000\000\000\000\000\000\000\000\000\000\000\000\000\000\000\000\000\000\000\000\000\000\000\000\000\000\000\000\000\000\000\000\000\000\000\000\000\000\000\000\000\000\000\000\000\000\000\000\000\000\000\000\000\000\000\000\000\000\000\000\000\000\000\000\000\000\000\000\000\000\000\000\000\000\000\000\000\000\000\000\000\000\000\000\000\000\000\000\000\000\000\000\000\000\000\000\000\000\000\000\000\000\000\000\000\000\000\000\000\000\000\000\000\000\000\000\000\000\000\000\000\000\000\000\000\000\000\000\000\000\000\000\000\000\000\000\000\000\000\000\000\000\000\000\000\000\000\000\000\000\000\000\000\000\000\000\000\000\000\000\000\000\000\000\000\000\000\000\000\000\000\000\000\000\000\000\000\000\000\000\000\000\000\000\000\000\000\000\000\000\000\000\000\000\000\000\000\000\000\000\000\000\000\000\000\000\000\000\000\000\000\000\000\000\000\000\000\000\000\000\000\000\000\000\000\000\000\000\000\000\000\000\000\000\000\000\000\000\000\000\000\000\000\000\000\000\000\000\000\000\000\000\000\000\000\000\000\000\000\000\000\000\000\000\000\000\000\000\000\000\000\000\000\000\000\000\000\000\000\000\000\000\000\000\000\000\000\000\000\000\000\000\000\000\000\000\000\000\000\000\000\000\000\000\000\000\000\000\000\000\000\000\000\000\000\000\000\000\000\000\000\000\000\000\000\000\000\000\000\000\000\000\000\000\000\000\000\000\000\000\000\000\000\000\000\000\000\000\000\000\000\000\000\000\000\000\000\000\000\000\000\000\000\000\000\000\000\000\000\000\000\000\000\000\000\000\000\000\000\000\000\000\000\000\000\000\000\000\000\000\000\000\000\000\000\000\000\000\000\000\000\000\000\000\000\000\000\000\000\000\000\000\000\000\000\000\000\000\000\000\000\000\000\000\000\000\000\000\000\000\000\000\000\000\000\000\000\000\000\000\000\000\000\000\000\000\000\000\000\000\000\000\000\000\000\000\000\000\000\000\000\000\000\000\000\000\000\000\000\000\000\000\000\000\000\000\000\000\000\000\000\000\000\000\000\000\000\000\000\000\000\000\000\000\000\000\000\000\000\000\000\000\000\000\000\000\000\000\000\000\000\000\000\000\000\000\000\000\000\000\000\000\000\000\000\000\000\000\000\000\000\000\000\000\000\000\000\000\000\000\000\000\000\000\000\000\000\000\000\000\000\000\000\000\000\000\000\000\000\000\000\000\000\000\000\000\000\000\000\000\000\000\000\000\000\000\000\000\000\000\000\000\000\000\000\000\000\000\000\177ELF\002\001\001@\003\000\000\000\000\000\000\000\003\000\340\000\001\000\000\000\000\000\000\000\000\000\000\000@\000\000\000\000\000\000\000\b\017\000\000\000\000\000\000?\005\000\000@\0008\000\t\000@\000\020\000\016\000\006\000\000\000\004\000\000\000@\000\000\000\000\000\000\000@\000\000\000\000\000\000\000@\000\000\000\000\000\000\000\370\001\000\000\000\000\000\000\370\001\000\000\000\000\000\000\b\000\000\000\000\000\000\000\001\000\000\000\004\000\000\000\000\000\000\000\000\000\000\000\000\000\000\000\000\000\000\000\000\000\000\000\000\000\000\000\200\006\000\000\000\000\000\000\200\006\000\000\000\000\000\000\000\020\000\000\000\000\000\000\001\000\000\000\005\000\000\000\000\007\000\000\000\000\000\000\000\027\000\000\000\000\000\000\000\027\000\000\000\000\000\000\200\005\000\000\000\000\000\000\200\005\000\000\000\000\000\000\000\020\000\000\000\000\000\000\001\000\000\000\006\000\000\000\200\f\000\000\000\000\000\000\200,\000\000\000\000\000\000\200,\000\000\000\000\000\000p\000\000\000\000\000\000\000\200\003\000\000\000\000\000\000\000\020\000\000\000\000\000\000\001\000\000\000\006\000\000\000\360\f\000\000\000\000\000\000\360<\000\000\000\000\000\000\360<\000\000\000\000\000\000\000\000\000\000\000\000\000\000\001\000\000\000\000\000\000\000\000\020\000\000\000\000\000\000\002\000\000\000\006\000\000\000\200\f\000\000\000\000\000\000\200,\000\000\000\000\000\000\200,\000\000\000\000\000\000p\000\000\000\000\000\000\000p\000\000\000\000\000\000\000\b\000\000\000\000\000\000\000R\345td\004\000\000\000\200\f\000\000\000\000\000\000\200,\000\000\000\000\000\000\200,\000\000\000\000\000\000p\000\000\000\000\000\000\000\200\003\000\000\000\000\000\000\001\000\000\000\000\000\000\000Q\345td\006\000\000\000\000\000\000\000\000\000\000\000\000\000\000\000\000\000\000\000\000\000\000\000\000\000\000\000\000\000\000\000\000\000\000\000\000\000\000\000\000\000\000\000\000\000\000\000\000\000\000\000\004\000\000\000\004\000\000\0008\002\000\000\000\000\000\0008\002\000\000\000\000\000\0008\002\000\000\000\000\000\000\304\002\000\000\000\000\000\000\304\002\000\000\000\000\000\000\004\000\000\000\000\000\000\000\007\000\000\000\255\002\000\000 \000\000\000AMDGPU\000\000\203\256amdhsa.kernels\221\336\000\022\253.agpr_count\000\245.args\222\205\256.address_space\246global\245.name\254input.coerce\247.offset\000\245.size\b\253.value_kind\255global_buffer\206\256.actual_access\252write_only\256.address_space\246global\245.name\255output.coerce\247.offset\b\245.size\b\253.value_kind\255global_buffer\271.group_segment_fixed_size\000\266.kernarg_segment_align\b\265.kernarg_segment_size\020\251.language\250OpenCL C\261.language_version\222\002\000\270.max_flat_workgroup_size\315\004\000\245.name\331$_Z11test_kernelILi256ELi4096EEvPfS0_\273.private_segment_fixed_size\000\253.sgpr_count\020\261.sgpr_spill_count\000\247.symbol\331'_Z11test_kernelILi256ELi4096EEvPfS0_.kd\270.uniform_work_group_size\001\263.uses_dynamic_stack\302\253.vgpr_count\n\261.vgpr_spill_count\000\257.wavefront_size@\255amdhsa.target\271amdgcn-amd-amdhsa--gfx90a\256amdhsa.version\222\001\002\000\000\000\000\000\000\000\000\000\000\000\000\000\000\000\000\000\000\000\000\000\000\000\000\000\000\000\000\000\000\000\001\000\000\000\022\003\007\000\000\033\000\000\000\000\000\000\200\001\000\000\000\000\000\000&\000\000\000\021\003\006\000@\006\000\000\000\000\000\000@\000\000\000\000\000\000\000N\000\000\000\021\000\n\000\360<\000\000\000\000\000\000\001\000\000\000\000\000\000\000\001\000\000\000\001\000\000\000\001\000\000\000\032\000\000\000\000\000\000\200\001\004\004 \001\000\000\000 \251\367|\374fU\312\353\201\022\311\004\000\000\000\004\000\000\000\003\000\000\000\000\000\000\000\000\000\000\000\001\000\000\000\000\000\000\000\000\000\000\000\000\000\000\000\002\000\000\000\000_Z11test_kernelILi256ELi4096EEvPfS0_\000_Z11test_kernelILi256ELi4096EEvPfS0_.kd\000__hip_cuid_2dc02b19ac8d7768\000\000\000\000\000\000\000\000\000\000\000\000\000\000\000\000\000\000\000\000\000\000\000\000\000\000\000\000\000\000\000\000\000\000\000\000\000\000\000\000\000\000\000\000\000\000\000\020\000\000\000\000\000\000\000\300\024\000\000\000\000\000\000\000\000\000\000\000\000\000\000\000\000\000\000\000\000\000\000\000\000\000\000\002\000\000\000A\000\257\000\214\000\000\000\t\000\000\000\000\000\000\000\000\000\000\000\000\000\000\000\000\000\000\000\000\000\000\000\000\000\000\000\000\000\000\000\000\000\000\000\000\000\000\000\000\000\000\000\000\000\000\000\000\000\000\000\000\000\000\000\000\000\000\000\000\000\000\000\000\000\000\000\000\000\000\000\000\000\000\000\000\000\000\000\000\000\000\000\000\000\000\000\000\000\000\000\000\000\000\000\000\000\000\000\000\000\000\000\000\000\000\000\000\000\000\000\000\000\000\000\000\000\000\000\000\000\000\000\000\000\000\000\000\000\000\000\000\000\000\000\000\000\200\277\000\000\200\277\000\000\200\277\000\000\200\277\000\000\200\277\000\000\200\277\000\000\200\277\000\000\200\277\000\000\200\277\000\000\200\277\000\000\200\277\000\000\200\277\000\000\200\277\000\000\200\277\000\000\200\277\000\000\200\277\000\000\200\277\000\000\200\277\000\000\200\277\000\000\200\277\000\000\200\277\000\000\200\277\000\000\200\277\000\000\200\277\000\000\200\277\000\000\200\277\000\000\200\277\000\000\200\277\000\000\200\277\000\000\200\277\000\000\200\277\000\000\200\277\000\000\200\277\000\000\200\277\000\000\200\277\000\000\200\277\000\000\200\277\000\000\200\277\000\000\200\277\000\000\200\277\000\000\200\277\000\000\200\277\000\000\200\277\000\000\200\277\000\000\200\277\000\000\200\277\000\000\200\277\000\000\200\277\000\000\200\277\000\000\200\277\000\000\200\277\000\000\200\277\000\000\200\277\000\000\200\277\000\000\200\277\000\000\200\277\000\000\200\277\000\000\200\277\000\000\200\277\000\000\200\277\000\000\200\277\000\000\200\277\000\000\200\277\000\000\200\277\000\000\200\277\000\000\200\277\000\000\200\277\000\000\200\277\000\000\200\277\000\000\200\277\000\000\200\277\000\000\200\277\000\000\200\277\000\000\200\277\000\000\200\277\000\000\200\277\000\000\200\277\000\000\200\277\000\000\200\277\000\000\200\277\000\000\200\277\000\000\200\277\000\000\200\277\000\000\200\277\000\000\200\277\000\000\200\277\000\000\200\277\000\000\200\277\000\000\200\277\000\000\200\277\000\000\200\277\000\000\200\277\000\000\200\277\000\000\200\277\000\000\200\277\000\000\200\277\000\000\200\277\000\000\200\277\000\000\200\277\000\000\200\277\000\000\200\277\000\000\200\277\000\000\200\277\000\000\200\277\000\000\200\277\000\000\200\277\000\000\200\277\000\000\200\277\000\000\200\277\000\000\200\277\000\000\200\277\000\000\200\277\000\000\200\277\000\000\200\277\000\000\200\277\000\000\200\277\000\000\200\277\000\000\200\277\000\000\200\277\000\000\200\277\000\000\200\277\000\000\200\277\000\000\200\277\000\000\200\277\000\000\200\277\000\000\200\277\000\000\200\277\000\000\200\277\000\000\200\277\000\000\200\277\000\000\200\277\000\000\200\277\000\000\200\277\000\000\200\277\000\000\200\277\000\000\200\277\000\000\200\277\000\000\200\277\000\000\200\277\000\000\200\277\000\000\200\277\000\000\200\277\000\000\200\277\000\000\200\277\000\000\200\277\000\000\200\277\000\000\200\277\000\000\200\277\000\000\200\277\000\000\200\277\000\000\200\277\000\000\200\277\000\000\200\277\000\000\200\277\000\000\200\277\000\000\200\277\000\000\200\277\000\000\200\277\000\000\200\277\000\000\200\277\000\000\200\277\000\000\200\277\000\000\200\277\000\000\200\277\000\000\200\277\000\000\200\277\000\000\200\277\000\000\200\277\000\000\200\277\000\000\200\277\000\000\200\277\000\000\200\277\000\000\200\277\000\000\200\277\000\000\200\277\000\000\200\277\000\000\200\277\000\000\200\277\000\000\200\277\000\000\200\277\000\000\200\277\000\000\200\277\000\000\200\277\000\000\200\277\000\000\200\277\000\000\200\277\000\000\200\277\000\000\200\277\000\000\200\277\000\000\200\277\000\000\200\277\000\000\200\277\000\000\200\277\000\000\200\277\000\000\200\277\000\000\200\277\000\000\200\277\000\000\200\277\000\000\200\277\000\000\200\277\000\000\200\277\000\000\200\277\000\000\200\277\000\000\200\277\000\000\200\277\000\000\200\277\000\000\200\277\000\000\200\277\000\000\200\277\000\000\200\277\000\000\200\277\000\000\200\277\000\000\200\277\000\000\200\277\000\000\200\277\000\000\200\277\000\000\200\277\000\000\200\277\000\000\200\277\000\000\200\277\000\000\200\277\000\000\200\277\000\000\200\277\000\000\200\277\000\000\200\277\000\000\200\277\000\000\200\277\000\000\200\277\000\000\200\277\000\000\200\277\000\000\200\277\000\000\200\277\000\000\200\277\000\000\200\277\000\000\200\277\000\000\200\277\000\000\200\277\000\000\200\277\000\000\200\277\000\000\200\277\000\000\200\277\000\000\200\277\000\000\200\277\000\000\200\277\000\000\200\277\000\000\200\277\000\000\200\277\000\000\200\277\000\000\200\277\000\000\200\277\000\000\200\277\000\000\200\277\000\000\200\277\000\000\200\277\000\000\200\277\000\000\200\277\002\002\n\300\000\000\000\000\377\000\203\276\000\000\002\000\301\000\202\276\006\000\375\321\006\020\001\004\200\002\016~\177\300\214\277\b\000\200\276\t\000\201\276\000\020\\\340\000\002\000\200p\017\214\277\000\000\032\330\000\002\000\000\000\001\032\330\000\003\000\000\006\000\217\322\204\f\002\000\000\002\032\330\000\004\000\000\013\002\020~\n\f\f2\202\000\002$\000\003\032\330\000\005\000\000\000\000\212\277\000\000\376\331\001\000\000\002\b\017\0168\177\300\214\277\000\200|\334\006\002\177\000\000\000\212\277\000\024\\\340\000\002\000\200p\017\214\277\000\004\032\330\000\002\000\000\000\005\032\330\000\003\000\000\000 \004\260\000\006\032\330\000\004\000\000\004\f\0202\000\007\032\330\000\005\000\000\000\000\212\277\000\004\376\331\001\000\000\002\200\016\0228\177\300\214\277\000\220|\334\b\002\177\000\000\000\212\277\000\030\\\340\000\002\000\200p\017\214\277\000\b\032\330\000\002\000\000\000\t\032\330\000\003\000\000\000\n\032\330\000\004\000\000\000\013\032\330\000\005\000\000\000\000\212\277\000\b\376\331\001\000\000\002\177\300\214\277\000\200|\334\b\002\177\000\000\000\212\277\000\034\\\340\000\002\000\200p\017\214\277\000\f\032\330\000\002\000\000\000\r\032\330\000\003\000\000\000\016\032\330\000\004\000\000\000\017\032\330\000\005\000\000\000\000\212\277\000\f\376\331\001\000\000\000\177\300\214\277\377\f\b2\0000\000\000\200\016\n8\000\200|\334\004\000\177\000\000\000\212\277\000\000\201\277\006\000\000\000\000\000\000\000\000\005\000\000\000\000\000\000\013\000\000\000\000\000\000\000\030\000\000\000\000\000\000\000\005\000\000\000\000\000\000\000\260\005\000\000\000\000\000\000\n\000\000\000\000\000\000\000j\000\000\000\000\000\000\000\365\376\377o\000\000\000\000`\005\000\000\000\000\000\000\004\000\000\000\000\000\000\000\210\005\000\000\000\000\000\000\000\000\000\000\000\000\000\000\000\000\000\000\000\000\000\000\000Linker: AMD LLD 18.0.0\000AMD clang version 18.0.0git (ssh://gerritgit/lightning/ec/llvm-project amd-mainline-open 24165 b8a2fdd0a02f77c0a37740478912d2de24c20604)\000\000\000\000\000\000\000\000\000\000\000\000\000\000\000\000\000\000\000\000\000\000\000\000\000\000\000\000\000\000\000\000j\000\000\000\000\002\b\000\200,\000\000\000\000\000\000\000\000\000\000\000\000\000\000\001\000\000\000\022\003\007\000\000\033\000\000\000\000\000\000\200\001\000\000\000\000\000\000&\000\000\000\021\003\006\000@\006\000\000\000\000\000\000@\000\000\000\000\000\000\000N\000\000\000\021\000\n\000\360<\000\000\000\000\000\000\001\000\000\000\000\000\000\000\000.note\000.dynsym\000.gnu.hash\000.hash\000.dynstr\000.rodata\000.text\000.dynamic\000.relro_padding\000.bss\000.AMDGPU.csdata\000.comment\000.symtab\000.shstrtab\000.strtab\000\000_Z11test_kernelILi256ELi4096EEvPfS0_\000_Z11test_kernelILi256ELi4096EEvPfS0_.kd\000__hip_cuid_2dc02b19ac8d7768\000_DYNAMIC\000\000\000\000\000\000\000\000\000\000\000\000\000\000\000\000\000\000\000\000\000\000\000\000\000\000\000\000\000\000\000\000\000\000\000\000\000\000\000\000\000\000\000\000\000\000\000\000\000\000\000\000\000\000\000\000\000\000\000\000\000\000\000\000\000\000\001\000\000\000\007\000\000\000\002\000\000\000\000\000\000\0008\002\000\000\000\000\000\0008\002\000\000\000\000\000\000\304\002\000\000\000\000\000\000\000\000\000\000\000\000\000\000\004\000\000\000\000\000\000\000\000\000\000\000\000\000\000\000\007\000\000\000\013\000\000\000\002\000\000\000\000\000\000\000\000\005\000\000\000\000\000\000\000\005\000\000\000\000\000\000`\000\000\000\000\000\000\000\005\000\000\000\001\000\000\000\b\000\000\000\000\000\000\000\030\000\000\000\000\000\000\000\017\000\000\000\366\377\377o\002\000\000\000\000\000\000\000`\005\000\000\000\000\000\000`\005\000\000\000\000\000\000(\000\000\000\000\000\000\000\002\000\000\000\000\000\000\000\b\000\000\000\000\000\000\000\000\000\000\000\000\000\000\000\031\000\000\000\005\000\000\000\002\000\000\000\000\000\000\000\210\005\000\000\000\000\000\000\210\005\000\000\000\000\000\000(\000\000\000\000\000\000\000\002\000\000\000\000\000\000\000\004\000\000\000\000\000\000\000\004\000\000\000\000\000\000\000\037\000\000\000\003\000\000\000\002\000\000\000\000\000\000\000\260\005\000\000\000\000\000\000\260\005\000\000\000\000\000\000j\000\000\000\000\000\000\000\000\000\000\000\000\000\000\000\001\000\000\000\000\000\000\000\000\000\000\000\000\000\000\000'\000\000\000\001\000\000\000\002\000\000\000\000\000\000\000@\006\000\000\000\000\000\000@\006\000\000\000\000\000\000@\000\000\000\000\000\000\000\000\000\000\000\000\000\000\000@\000\000\000\000\000\000\000\000\000\000\000\000\000\000\000/\000\000\000\001\000\000\000\006\000\000\000\000\000\000\000\000\027\000\000\000\000\000\000\000\007\000\000\000\000\000\000\200\005\000\000\000\000\000\000\000\000\000\000\000\000\000\000\000\001\000\000\000\000\000\000\000\000\000\000\000\000\000\0005\000\000\000\006\000\000\000\003\000\000\000\000\000\000\000\200,\000\000\000\000\000\000\200\f\000\000\000\000\000\000p\000\000\000\000\000\000\000\005\000\000\000\000\000\000\000\b\000\000\000\000\000\000\000\020\000\000\000\000\000\000\000>\000\000\000\b\000\000\000\003\000\000\000\000\000\000\000\360,\000\000\000\000\000\000\360\f\000\000\000\000\000\000\020\003\000\000\000\000\000\000\000\000\000\000\000\000\000\000\001\000\000\000\000\000\000\000\000\000\000\000\000\000\000\000M\000\000\000\b\000\000\000\003\000\000\000\000\000\000\000\360<\000\000\000\000\000\000\360\f\000\000\000\000\000\000\001\000\000\000\000\000\000\000\000\000\000\000\000\000\000\000\001\000\000\000\000\000\000\000\000\000\000\000\000\000\000\000R\000\000\000\001\000\000\000\000\000\000\000\000\000\000\000\000\000\000\000\000\000\000\000\360\f\000\000\000\000\000\000\000\000\000\000\000\000\000\000\000\000\000\000\000\000\000\000\001\000\000\000\000\000\000\000\000\000\000\000\000\000\000\000a\000\000\000\001\000\000\0000\000\000\000\000\000\000\000\000\000\000\000\000\000\000\000\360\f\000\000\000\000\000\000\241\000\000\000\000\000\000\000\000\000\000\000\000\000\000\000\001\000\000\000\000\000\000\000\001\000\000\000\000\000\000\000j\000\000\000\002\000\000\000\000\000\000\000\000\000\000\000\000\000\000\000\000\000\000\000\230\r\000\000\000\000\000\000x\000\000\000\000\000\000\000\017\000\000\000\002\000\000\000\b\000\000\000\000\000\000\000\030\000\000\000\000\000\000\000r\000\000\000\003\000\000\000\000\000\000\000\000\000\000\000\000\000\000\000\000\000\000\000\020\016\000\000\000\000\000\000\204\000\000\000\000\000\000\000\000\000\000\000\000\000\000\000\001\000\000\000\000\000\000\000\000\000\000\000\000\000\000\000|\000\000\000\003\000\000\000\000\000\000\000\000\000\000\000\000\000\000\000\000\000\000\000\224\016\000\000\000\000\000\000s\000\000\000\000\000\000\000\000\000\000\000\000\000\000\000\001\000\000\000\000\000\000\000\000\000\000\000\000\000\000"
	.size	.L__unnamed_2, 8968

	.type	__hip_fatbin_wrapper,@object    # @__hip_fatbin_wrapper
	.section	.hipFatBinSegment,"a",@progbits
	.p2align	3, 0x0
__hip_fatbin_wrapper:
	.long	1212764230                      # 0x48495046
	.long	1                               # 0x1
	.quad	.L__unnamed_2
	.quad	0
	.size	__hip_fatbin_wrapper, 24

	.type	__hip_gpubin_handle,@object     # @__hip_gpubin_handle
	.local	__hip_gpubin_handle
	.comm	__hip_gpubin_handle,8,8
	.section	.init_array,"aw",@init_array
	.p2align	3, 0x0
	.quad	_GLOBAL__sub_I_test.cu.hip.cc
	.quad	__hip_module_ctor
	.type	__hip_cuid_2dc02b19ac8d7768,@object # @__hip_cuid_2dc02b19ac8d7768
	.bss
	.globl	__hip_cuid_2dc02b19ac8d7768
__hip_cuid_2dc02b19ac8d7768:
	.byte	0                               # 0x0
	.size	__hip_cuid_2dc02b19ac8d7768, 1

	.ident	"AMD clang version 18.0.0git (ssh://gerritgit/lightning/ec/llvm-project amd-mainline-open 24165 b8a2fdd0a02f77c0a37740478912d2de24c20604)"
	.section	".note.GNU-stack","",@progbits
	.addrsig
	.addrsig_sym _Z26__device_stub__test_kernelILi256ELi4096EEvPfS0_
	.addrsig_sym _GLOBAL__sub_I_test.cu.hip.cc
	.addrsig_sym __hip_module_ctor
	.addrsig_sym __hip_module_dtor
	.addrsig_sym _ZStL8__ioinit
	.addrsig_sym __dso_handle
	.addrsig_sym _Z11test_kernelILi256ELi4096EEvPfS0_
	.addrsig_sym .L__unnamed_2
	.addrsig_sym __hip_fatbin_wrapper
	.addrsig_sym __hip_cuid_2dc02b19ac8d7768
